target datalayout = "e-m:e-p270:32:32-p271:32:32-p272:64:64-i64:64-i128:128-f80:128-n8:16:32:64-S128"
target triple = "x86_64-pc-linux-gnu"

%struct.dt_pthread_mutex_t = type { %union.pthread_mutex_t }
%union.pthread_mutex_t = type { %struct.__pthread_mutex_s }
%struct.__pthread_mutex_s = type { i32, i32, i32, i32, i32, i16, i16, %struct.__pthread_internal_list }
%struct.__pthread_internal_list = type { ptr, ptr }
%struct.dt_film_import1_t = type { ptr, ptr }
%struct.dt_film_t = type { i32, [512 x i8], %struct.dt_pthread_mutex_t, ptr, i32, i32, i32 }

@.str = private unnamed_addr constant [34 x i8] c"cache load raw images for preview\00", align 1
@.str.1 = private unnamed_addr constant [14 x i8] c"import images\00", align 1

; Function Attrs: inlinehint nounwind uwtable
define internal i32 @dt_pthread_mutex_unlock(ptr noundef %0) #5 {
  %2 = alloca ptr, align 8
  store ptr %0, ptr %2, align 8, !tbaa !25
  %3 = load ptr, ptr %2, align 8, !tbaa !25
  %4 = getelementptr inbounds nuw %struct.dt_pthread_mutex_t, ptr %3, i32 0, i32 0
  %5 = call i32 @pthread_mutex_unlock(ptr noundef %4) #9
  ret i32 %5
}

; Function Attrs: inlinehint nounwind uwtable
define internal i32 @dt_pthread_mutex_lock(ptr noundef %0) #5 {
  %2 = alloca ptr, align 8
  store ptr %0, ptr %2, align 8, !tbaa !25
  %3 = load ptr, ptr %2, align 8, !tbaa !25
  %4 = getelementptr inbounds nuw %struct.dt_pthread_mutex_t, ptr %3, i32 0, i32 0
  %5 = call i32 @pthread_mutex_lock(ptr noundef %4) #9
  ret i32 %5
}

; Function Attrs: nounwind uwtable
define ptr @dt_film_import1_create(ptr noundef %0) #0 {
  %2 = alloca ptr, align 8
  %3 = alloca ptr, align 8
  %4 = alloca ptr, align 8
  %5 = alloca i32, align 4
  %6 = alloca ptr, align 8
  store ptr %0, ptr %3, align 8, !tbaa !6
  call void @llvm.lifetime.start.p0(i64 8, ptr %4) #9
  %7 = call ptr (ptr, ptr, ...) @dt_control_job_create(ptr noundef @dt_film_import1_run, ptr noundef @.str)
  store ptr %7, ptr %4, align 8, !tbaa !11
  %8 = load ptr, ptr %4, align 8, !tbaa !11
  %9 = icmp ne ptr %8, null
  br i1 %9, label %11, label %10

10:                                               ; preds = %1
  store ptr null, ptr %2, align 8
  store i32 1, ptr %5, align 4
  br label %37

11:                                               ; preds = %1
  call void @llvm.lifetime.start.p0(i64 8, ptr %6) #9
  %12 = call noalias ptr @calloc(i64 noundef 1, i64 noundef 16) #10
  store ptr %12, ptr %6, align 8, !tbaa !13
  %13 = load ptr, ptr %6, align 8, !tbaa !13
  %14 = icmp ne ptr %13, null
  br i1 %14, label %17, label %15

15:                                               ; preds = %11
  %16 = load ptr, ptr %4, align 8, !tbaa !11
  call void @dt_control_job_dispose(ptr noundef %16)
  store ptr null, ptr %2, align 8
  store i32 1, ptr %5, align 4
  br label %36

17:                                               ; preds = %11
  %18 = load ptr, ptr %4, align 8, !tbaa !11
  %19 = call ptr @dcgettext(ptr noundef null, ptr noundef @.str.1, i32 noundef 5) #9
  call void @dt_control_job_add_progress(ptr noundef %18, ptr noundef %19, i32 noundef 1)
  %20 = load ptr, ptr %4, align 8, !tbaa !11
  %21 = load ptr, ptr %6, align 8, !tbaa !13
  call void @dt_control_job_set_params(ptr noundef %20, ptr noundef %21, ptr noundef @dt_film_import1_cleanup)
  %22 = load ptr, ptr %3, align 8, !tbaa !6
  %23 = load ptr, ptr %6, align 8, !tbaa !13
  %24 = getelementptr inbounds nuw %struct.dt_film_import1_t, ptr %23, i32 0, i32 0
  store ptr %22, ptr %24, align 8, !tbaa !15
  %25 = load ptr, ptr %3, align 8, !tbaa !6
  %26 = getelementptr inbounds nuw %struct.dt_film_t, ptr %25, i32 0, i32 2
  %27 = call i32 @dt_pthread_mutex_lock(ptr noundef %26)
  %28 = load ptr, ptr %3, align 8, !tbaa !6
  %29 = getelementptr inbounds nuw %struct.dt_film_t, ptr %28, i32 0, i32 6
  %30 = load i32, ptr %29, align 8, !tbaa !18
  %31 = add nsw i32 %30, 1
  store i32 %31, ptr %29, align 8, !tbaa !18
  %32 = load ptr, ptr %3, align 8, !tbaa !6
  %33 = getelementptr inbounds nuw %struct.dt_film_t, ptr %32, i32 0, i32 2
  %34 = call i32 @dt_pthread_mutex_unlock(ptr noundef %33)
  %35 = load ptr, ptr %4, align 8, !tbaa !11
  store ptr %35, ptr %2, align 8
  store i32 1, ptr %5, align 4
  br label %36

36:                                               ; preds = %17, %15
  call void @llvm.lifetime.end.p0(i64 8, ptr %6) #9
  br label %37

37:                                               ; preds = %36, %10
  call void @llvm.lifetime.end.p0(i64 8, ptr %4) #9
  %38 = load ptr, ptr %2, align 8
  ret ptr %38
}