; Function Attrs: nounwind uwtable
define ptr @dt_film_import1_create(ptr noundef %0) local_unnamed_addr #0 {
  %2 = tail call ptr (ptr, ptr, ...) @dt_control_job_create(ptr noundef nonnull @dt_film_import1_run, ptr noundef nonnull @.str) #11
  %.not = icmp eq ptr %2, null
  br i1 %.not, label %14, label %3

3:                                                ; preds = %1
  %4 = tail call noalias dereferenceable_or_null(16) ptr @calloc(i64 noundef 1, i64 noundef 16) #12
  %.not15 = icmp eq ptr %4, null
  br i1 %.not15, label %5, label %6

5:                                                ; preds = %3
  tail call void @dt_control_job_dispose(ptr noundef nonnull %2) #11
  br label %14

6:                                                ; preds = %3
  %7 = tail call ptr @dcgettext(ptr noundef null, ptr noundef nonnull @.str.1, i32 noundef 5) #11
  tail call void @dt_control_job_add_progress(ptr noundef nonnull %2, ptr noundef %7, i32 noundef 1) #11
  tail call void @dt_control_job_set_params(ptr noundef nonnull %2, ptr noundef nonnull %4, ptr noundef nonnull @dt_film_import1_cleanup) #11
  store ptr %0, ptr %4, align 8, !tbaa !6
  %8 = getelementptr inbounds nuw i8, ptr %0, i64 520
  %9 = tail call i32 @pthread_mutex_lock(ptr noundef nonnull %8) #11
  %10 = getelementptr inbounds nuw i8, ptr %0, i64 576
  %11 = load i32, ptr %10, align 8, !tbaa !13
  %12 = add nsw i32 %11, 1
  store i32 %12, ptr %10, align 8, !tbaa !13
  %13 = tail call i32 @pthread_mutex_unlock(ptr noundef nonnull %8) #11
  br label %14

14:                                               ; preds = %5, %6, %1
  %.0 = phi ptr [ null, %1 ], [ %2, %6 ], [ null, %5 ]
  ret ptr %.0
}